; Function Attrs: mustprogress nofree norecurse nosync nounwind willreturn memory(read, inaccessiblemem: none) uwtable
define dso_local noundef zeroext i1 @job_uses_max_start_delay_resv(ptr noundef readonly captures(none) %0) local_unnamed_addr #11 {
  %2 = getelementptr inbounds nuw i8, ptr %0, i64 824
  %3 = load ptr, ptr %2, align 8
  %.not = icmp eq ptr %3, null
  br i1 %.not, label %10, label %4

4:                                                ; preds = %1
  %5 = getelementptr inbounds nuw i8, ptr %3, i64 176
  %6 = load i32, ptr %5, align 8
  %.not5 = icmp eq i32 %6, 0
  br i1 %.not5, label %10, label %7

7:                                                ; preds = %4
  %8 = getelementptr inbounds nuw i8, ptr %3, i64 192
  %9 = load ptr, ptr %8, align 8
  %.not6 = icmp eq ptr %9, null
  br i1 %.not6, label %10, label %11

10:                                               ; preds = %7, %4, %1
  br label %11

11:                                               ; preds = %7, %10
  %.0 = phi i1 [ false, %10 ], [ true, %7 ]
  ret i1 %.0
}